target datalayout = "e-m:e-p270:32:32-p271:32:32-p272:64:64-i64:64-i128:128-f80:128-n8:16:32:64-S128"
target triple = "x86_64-pc-linux-gnu"

%struct.Rtm_Obj_t_ = type { ptr, i32, i32, i32, i32, [0 x ptr] }

; Function Attrs: inlinehint nounwind uwtable
define internal i32 @Abc_MaxInt(i32 noundef %0, i32 noundef %1) #5 {
  %3 = alloca i32, align 4
  %4 = alloca i32, align 4
  store i32 %0, ptr %3, align 4, !tbaa !21
  store i32 %1, ptr %4, align 4, !tbaa !21
  %5 = load i32, ptr %3, align 4, !tbaa !21
  %6 = load i32, ptr %4, align 4, !tbaa !21
  %7 = icmp sgt i32 %5, %6
  br i1 %7, label %8, label %10

8:                                                ; preds = %2
  %9 = load i32, ptr %3, align 4, !tbaa !21
  br label %12

10:                                               ; preds = %2
  %11 = load i32, ptr %4, align 4, !tbaa !21
  br label %12

12:                                               ; preds = %10, %8
  %13 = phi i32 [ %9, %8 ], [ %11, %10 ]
  ret i32 %13
}

; Function Attrs: inlinehint nounwind uwtable
define internal ptr @Rtm_ObjFanout(ptr noundef %0, i32 noundef %1) #5 {
  %3 = alloca ptr, align 8
  %4 = alloca i32, align 4
  store ptr %0, ptr %3, align 8, !tbaa !40
  store i32 %1, ptr %4, align 4, !tbaa !21
  %5 = load ptr, ptr %3, align 8, !tbaa !40
  %6 = getelementptr inbounds nuw %struct.Rtm_Obj_t_, ptr %5, i32 0, i32 5
  %7 = load ptr, ptr %3, align 8, !tbaa !40
  %8 = getelementptr inbounds nuw %struct.Rtm_Obj_t_, ptr %7, i32 0, i32 1
  %9 = load i32, ptr %8, align 8
  %10 = lshr i32 %9, 7
  %11 = and i32 %10, 255
  %12 = zext i32 %11 to i64
  %13 = trunc i64 %12 to i32
  %14 = load i32, ptr %4, align 4, !tbaa !21
  %15 = add nsw i32 %13, %14
  %16 = mul nsw i32 2, %15
  %17 = sext i32 %16 to i64
  %18 = getelementptr inbounds [0 x ptr], ptr %6, i64 0, i64 %17
  %19 = load ptr, ptr %18, align 8, !tbaa !45
  ret ptr %19
}

; Function Attrs: nounwind uwtable
define i32 @Rtm_ObjGetDegreeBwd(ptr noundef %0) #0 {
  %2 = alloca ptr, align 8
  %3 = alloca ptr, align 8
  %4 = alloca i32, align 4
  %5 = alloca i32, align 4
  store ptr %0, ptr %2, align 8, !tbaa !40
  call void @llvm.lifetime.start.p0(i64 8, ptr %3) #11
  call void @llvm.lifetime.start.p0(i64 4, ptr %4) #11
  call void @llvm.lifetime.start.p0(i64 4, ptr %5) #11
  store i32 0, ptr %5, align 4, !tbaa !21
  store i32 0, ptr %4, align 4, !tbaa !21
  br label %6

6:                                                ; preds = %25, %1
  %7 = load i32, ptr %4, align 4, !tbaa !21
  %8 = load ptr, ptr %2, align 8, !tbaa !40
  %9 = getelementptr inbounds nuw %struct.Rtm_Obj_t_, ptr %8, i32 0, i32 4
  %10 = load i32, ptr %9, align 4, !tbaa !49
  %11 = icmp slt i32 %7, %10
  br i1 %11, label %12, label %16

12:                                               ; preds = %6
  %13 = load ptr, ptr %2, align 8, !tbaa !40
  %14 = load i32, ptr %4, align 4, !tbaa !21
  %15 = call ptr @Rtm_ObjFanout(ptr noundef %13, i32 noundef %14)
  store ptr %15, ptr %3, align 8, !tbaa !40
  br label %16

16:                                               ; preds = %12, %6
  %17 = phi i1 [ false, %6 ], [ true, %12 ]
  br i1 %17, label %18, label %28

18:                                               ; preds = %16
  %19 = load i32, ptr %5, align 4, !tbaa !21
  %20 = load ptr, ptr %3, align 8, !tbaa !40
  %21 = getelementptr inbounds nuw %struct.Rtm_Obj_t_, ptr %20, i32 0, i32 1
  %22 = load i32, ptr %21, align 8
  %23 = lshr i32 %22, 15
  %24 = call i32 @Abc_MaxInt(i32 noundef %19, i32 noundef %23)
  store i32 %24, ptr %5, align 4, !tbaa !21
  br label %25

25:                                               ; preds = %18
  %26 = load i32, ptr %4, align 4, !tbaa !21
  %27 = add nsw i32 %26, 1
  store i32 %27, ptr %4, align 4, !tbaa !21
  br label %6, !llvm.loop !53

28:                                               ; preds = %16
  %29 = load i32, ptr %5, align 4, !tbaa !21
  %30 = add nsw i32 %29, 1
  call void @llvm.lifetime.end.p0(i64 4, ptr %5) #11
  call void @llvm.lifetime.end.p0(i64 4, ptr %4) #11
  call void @llvm.lifetime.end.p0(i64 8, ptr %3) #11
  ret i32 %30
}