; Function Attrs: nofree norecurse nosync nounwind memory(read, inaccessiblemem: none) uwtable
define range(i32 1, 131073) i32 @Rtm_ObjGetDegreeBwd(ptr noundef readonly captures(none) %0) local_unnamed_addr #8 {
  %2 = getelementptr inbounds nuw i8, ptr %0, i64 20
  %3 = load i32, ptr %2, align 4, !tbaa !41
  %4 = icmp sgt i32 %3, 0
  br i1 %4, label %.lr.ph, label %.critedge

.lr.ph:                                           ; preds = %1
  %5 = getelementptr inbounds nuw i8, ptr %0, i64 24
  %6 = getelementptr inbounds nuw i8, ptr %0, i64 8
  %7 = load i32, ptr %6, align 8
  %8 = lshr i32 %7, 7
  %9 = and i32 %8, 255
  %10 = zext nneg i32 %9 to i64
  %wide.trip.count = zext nneg i32 %3 to i64
  br label %11

11:                                               ; preds = %.lr.ph, %11
  %indvars.iv = phi i64 [ 0, %.lr.ph ], [ %indvars.iv.next, %11 ]
  %.09 = phi i32 [ 0, %.lr.ph ], [ %19, %11 ]
  %12 = add nuw nsw i64 %indvars.iv, %10
  %13 = shl nuw nsw i64 %12, 1
  %14 = getelementptr inbounds nuw [0 x ptr], ptr %5, i64 0, i64 %13
  %15 = load ptr, ptr %14, align 8, !tbaa !34
  %16 = getelementptr inbounds nuw i8, ptr %15, i64 8
  %17 = load i32, ptr %16, align 8
  %18 = lshr i32 %17, 15
  %19 = tail call range(i32 -2147483647, -2147483648) i32 @llvm.smax.i32(i32 %.09, i32 range(i32 -2147483647, -2147483648) %18)
  %indvars.iv.next = add nuw nsw i64 %indvars.iv, 1
  %exitcond.not = icmp eq i64 %indvars.iv.next, %wide.trip.count
  br i1 %exitcond.not, label %.critedge.loopexit, label %11, !llvm.loop !45

.critedge.loopexit:                               ; preds = %11
  %20 = add nuw nsw i32 %19, 1
  br label %.critedge

.critedge:                                        ; preds = %.critedge.loopexit, %1
  %.0.lcssa = phi i32 [ 1, %1 ], [ %20, %.critedge.loopexit ]
  ret i32 %.0.lcssa
}